Certificate:
    Data:
        Version: 3 (0x2)
        Serial Number: 2 (0x2)
        Signature Algorithm: sha256WithRSAEncryption
        Issuer: O=Test Org, CN=Test Org rauc CA Development
        Validity
            Not Before: Jan  1 00:00:00 1970 GMT
            Not After : Dec 31 23:59:59 9999 GMT
        Subject: O=Test Org, CN=Test Org Development-1
        Subject Public Key Info:
            Public Key Algorithm: rsaEncryption
                Public-Key: (2048 bit)
                Modulus:
                    00:c0:92:3f:d9:50:25:c8:3c:71:60:5e:16:58:b1:
                    99:cd:83:58:7b:e6:67:93:fc:9d:c3:ae:49:23:6d:
                    95:29:97:98:05:ef:0e:08:61:23:38:da:35:00:1a:
                    c9:f1:76:e6:44:d5:d6:48:b4:c1:58:c7:d8:cf:40:
                    04:71:d3:aa:8d:4e:ec:1e:db:44:2d:ba:d9:36:cf:
                    05:77:ec:9c:73:47:b9:2c:0f:89:25:4a:1b:b6:5e:
                    22:56:c1:04:6f:d1:6a:28:92:70:0e:1a:86:33:ac:
                    d0:e0:02:f0:b3:26:b0:01:ae:3a:00:02:1f:6b:f9:
                    62:eb:2f:73:0f:f7:b1:b0:45:88:5e:f4:fa:8e:00:
                    0a:d4:44:1b:6f:db:7d:7a:d4:4f:c9:7f:ce:b0:80:
                    86:3e:db:25:c8:71:cd:e8:8f:f0:7c:d2:02:11:3d:
                    9e:8c:c7:8f:fa:40:07:b7:1e:3c:52:dc:1e:54:7c:
                    80:cf:bb:30:3a:63:85:04:94:06:5c:35:4f:df:ee:
                    25:01:3b:67:db:c2:af:40:9d:62:be:48:e0:c1:d9:
                    54:64:99:7e:bf:f9:cd:89:b2:56:61:3c:64:6e:60:
                    5d:ed:60:aa:c3:08:02:1c:c6:be:dc:f3:18:28:53:
                    3b:70:d7:9b:3f:88:b7:e5:86:77:18:d6:bb:92:fb:
                    27:1f
                Exponent: 65537 (0x10001)
        X509v3 extensions:
            X509v3 Subject Key Identifier: 
                E7:93:72:14:BC:0A:DE:35:07:82:04:75:BB:94:BD:C6:87:69:90:C7
            X509v3 Authority Key Identifier: 
                keyid:32:7F:8D:E9:26:CD:16:31:A5:3C:D8:86:8D:78:09:A5:C3:F2:E2:E0
                DirName:/O=Test Org/CN=Test Org rauc CA Development
                serial:01
            X509v3 Basic Constraints: 
                CA:FALSE
    Signature Algorithm: sha256WithRSAEncryption
    Signature Value:
        4a:e6:59:a6:07:dc:9e:88:4f:67:cc:46:53:81:79:6d:0b:fa:
        45:bc:cf:0c:2d:44:dc:68:01:b2:52:04:e2:23:7f:40:8c:67:
        f4:eb:59:15:5e:4c:b5:97:a5:17:d3:e5:38:ed:6c:dd:ea:09:
        71:8e:55:6d:9f:59:17:7c:b5:1b:aa:95:97:d8:e6:21:cf:04:
        c4:7c:a0:b1:fc:4d:1d:76:e4:f6:a5:79:74:f9:8f:81:ce:ea:
        f2:b5:e6:46:c7:b5:03:eb:8d:fa:e2:5c:4b:84:f8:28:15:d2:
        6e:66:00:7a:1f:f3:4e:5e:16:6b:10:46:c1:6c:32:40:08:5a:
        b8:96:21:06:25:3b:6b:52:75:21:58:1e:63:e1:8b:ba:58:26:
        f4:68:fb:42:00:da:d7:5e:c1:fd:e4:47:b2:9f:f3:9f:25:3a:
        24:9f:20:30:b6:71:31:6c:e8:85:26:9e:57:2d:55:20:4d:f5:
        78:b6:f4:88:ca:cc:34:db:46:21:43:60:5b:7f:ed:38:d1:c3:
        6a:7c:cb:55:78:72:8c:ba:fe:32:fc:e3:2d:57:ae:f9:11:d8:
        98:ab:df:b7:80:be:b9:42:3a:87:d9:02:eb:15:0e:89:88:91:
        34:e1:b8:67:f6:60:43:bf:ee:f9:b3:67:e2:92:5b:6d:fb:17:
        6c:1b:11:53
-----BEGIN CERTIFICATE-----
MIIDfTCCAmWgAwIBAgIBAjANBgkqhkiG9w0BAQsFADA6MREwDwYDVQQKDAhUZXN0
IE9yZzElMCMGA1UEAwwcVGVzdCBPcmcgcmF1YyBDQSBEZXZlbG9wbWVudDAgFw03
MDAxMDEwMDAwMDBaGA85OTk5MTIzMTIzNTk1OVowNDERMA8GA1UECgwIVGVzdCBP
cmcxHzAdBgNVBAMMFlRlc3QgT3JnIERldmVsb3BtZW50LTEwggEiMA0GCSqGSIb3
DQEBAQUAA4IBDwAwggEKAoIBAQDAkj/ZUCXIPHFgXhZYsZnNg1h75meT/J3Drkkj
bZUpl5gF7w4IYSM42jUAGsnxduZE1dZItMFYx9jPQARx06qNTuwe20Qtutk2zwV3
7JxzR7ksD4klShu2XiJWwQRv0WooknAOGoYzrNDgAvCzJrABrjoAAh9r+WLrL3MP
97GwRYhe9PqOAArURBtv23161E/Jf86wgIY+2yXIcc3oj/B80gIRPZ6Mx4/6QAe3
HjxS3B5UfIDPuzA6Y4UElAZcNU/f7iUBO2fbwq9AnWK+SODB2VRkmX6/+c2JslZh
PGRuYF3tYKrDCAIcxr7c8xgoUztw15s/iLflhncY1ruS+ycfAgMBAAGjgZEwgY4w
HQYDVR0OBBYEFOeTchS8Ct41B4IEdbuUvcaHaZDHMGIGA1UdIwRbMFmAFDJ/jekm
zRYxpTzYho14CaXD8uLgoT6kPDA6MREwDwYDVQQKDAhUZXN0IE9yZzElMCMGA1UE
AwwcVGVzdCBPcmcgcmF1YyBDQSBEZXZlbG9wbWVudIIBATAJBgNVHRMEAjAAMA0G
CSqGSIb3DQEBCwUAA4IBAQBK5lmmB9yeiE9nzEZTgXltC/pFvM8MLUTcaAGyUgTi
I39AjGf061kVXky1l6UX0+U47Wzd6glxjlVtn1kXfLUbqpWX2OYhzwTEfKCx/E0d
duT2pXl0+Y+BzuryteZGx7UD64364lxLhPgoFdJuZgB6H/NOXhZrEEbBbDJACFq4
liEGJTtrUnUhWB5j4Yu6WCb0aPtCANrXXsH95Eeyn/OfJToknyAwtnExbOiFJp5X
LVUgTfV4tvSIysw020YhQ2Bbf+040cNqfMtVeHKMuv4y/OMtV675EdiYq9+3gL65
QjqH2QLrFQ6JiJE04bhn9mBDv+75s2fikltt+xdsGxFT
-----END CERTIFICATE-----
