Certificate:
    Data:
        Version: 3 (0x2)
        Serial Number: 1 (0x1)
        Signature Algorithm: sha256WithRSAEncryption
        Issuer: O=Test Org, CN=Test Org rauc CA Development
        Validity
            Not Before: Jan  1 00:00:00 1970 GMT
            Not After : Dec 31 23:59:59 9999 GMT
        Subject: O=Test Org, CN=Test Org rauc CA Development
        Subject Public Key Info:
            Public Key Algorithm: rsaEncryption
                Public-Key: (2048 bit)
                Modulus:
                    00:bc:47:e0:de:8c:41:0b:42:10:83:0c:8b:8c:9b:
                    9c:2b:77:62:44:f5:61:c0:a8:a8:c8:e0:41:c9:88:
                    da:38:08:76:ec:56:93:1b:a2:8f:8c:98:ee:49:5a:
                    b5:1b:b4:66:3e:bd:ad:4c:3e:ca:af:c7:e4:1c:38:
                    44:f3:38:05:f7:90:77:a3:d2:ca:5c:94:ca:ad:d7:
                    ea:14:cf:32:ee:c8:95:c1:cf:a8:9f:e4:b5:ac:dc:
                    28:22:b0:1d:9a:b1:af:d3:38:e3:e5:19:18:92:d3:
                    e4:60:fa:33:0f:27:28:c4:98:5d:19:95:3d:0f:f0:
                    77:f0:0b:5e:2b:f7:f8:cd:ce:12:0e:ba:04:75:a2:
                    e2:bf:40:31:99:41:5d:87:9b:1a:fd:0d:2d:4c:87:
                    a9:fa:0a:c1:5d:27:26:16:dd:e0:f9:be:50:8c:82:
                    db:d0:3a:3c:dd:da:2d:db:43:30:48:30:ca:ac:1c:
                    e1:45:75:15:d9:5f:1b:f0:8c:64:3e:12:f7:9e:6a:
                    97:c2:d0:b5:16:be:98:aa:a4:1b:a9:86:4a:77:e3:
                    87:c1:f2:8c:66:7d:9a:72:b1:a2:d6:8f:3f:b0:92:
                    b2:d3:a5:e8:d5:da:42:39:5b:86:e3:fc:dd:68:bc:
                    48:37:03:af:1b:97:c5:ae:7e:e8:0f:b9:2d:d5:7f:
                    65:6d
                Exponent: 65537 (0x10001)
        X509v3 extensions:
            X509v3 Subject Key Identifier: 
                32:7F:8D:E9:26:CD:16:31:A5:3C:D8:86:8D:78:09:A5:C3:F2:E2:E0
            X509v3 Authority Key Identifier: 
                keyid:32:7F:8D:E9:26:CD:16:31:A5:3C:D8:86:8D:78:09:A5:C3:F2:E2:E0
                DirName:/O=Test Org/CN=Test Org rauc CA Development
                serial:01
            X509v3 Basic Constraints: 
                CA:TRUE
    Signature Algorithm: sha256WithRSAEncryption
    Signature Value:
        95:f3:c4:0e:97:9b:e2:16:b4:b5:ea:e4:ec:a8:35:4d:e5:8d:
        8f:60:b7:1b:ef:43:a5:c2:5a:ae:02:cd:63:1b:db:e3:d7:a8:
        3a:4d:11:3b:6e:52:e2:6a:0b:aa:b7:ce:9c:53:98:4b:b2:14:
        12:e7:7e:ad:c1:44:8c:d7:85:b0:b8:30:24:a1:ee:fe:65:13:
        dc:de:46:0a:88:6f:42:73:16:2e:87:e5:99:88:69:67:b0:c5:
        a1:a8:24:63:86:da:ca:97:8b:8f:2c:0c:e8:65:b7:6e:82:ac:
        0e:d1:bf:9e:2f:f3:91:61:12:e4:7f:84:2e:c8:d6:5c:b3:27:
        eb:42:ed:15:10:e1:81:24:05:93:39:09:75:a7:c3:db:e4:dc:
        78:12:6a:e0:df:6d:83:05:62:93:c3:9c:80:30:29:4e:0b:67:
        84:9a:5d:da:da:22:91:1a:bf:68:70:06:54:b5:8d:01:62:cd:
        bc:d0:fc:ba:e9:94:ce:65:4d:a9:85:06:36:5a:a3:83:82:e2:
        7e:12:ce:35:84:26:a0:55:b4:01:83:0b:0b:fa:1c:82:a9:a9:
        a8:ba:71:06:17:29:f8:2a:ac:51:c8:b8:bd:02:8e:8d:18:3e:
        9f:ee:04:b8:51:f6:60:e9:d7:ab:a2:18:9c:78:18:1c:a1:65:
        10:de:2f:24
-----BEGIN CERTIFICATE-----
MIIDhjCCAm6gAwIBAgIBATANBgkqhkiG9w0BAQsFADA6MREwDwYDVQQKDAhUZXN0
IE9yZzElMCMGA1UEAwwcVGVzdCBPcmcgcmF1YyBDQSBEZXZlbG9wbWVudDAgFw03
MDAxMDEwMDAwMDBaGA85OTk5MTIzMTIzNTk1OVowOjERMA8GA1UECgwIVGVzdCBP
cmcxJTAjBgNVBAMMHFRlc3QgT3JnIHJhdWMgQ0EgRGV2ZWxvcG1lbnQwggEiMA0G
CSqGSIb3DQEBAQUAA4IBDwAwggEKAoIBAQC8R+DejEELQhCDDIuMm5wrd2JE9WHA
qKjI4EHJiNo4CHbsVpMboo+MmO5JWrUbtGY+va1MPsqvx+QcOETzOAX3kHej0spc
lMqt1+oUzzLuyJXBz6if5LWs3CgisB2asa/TOOPlGRiS0+Rg+jMPJyjEmF0ZlT0P
8HfwC14r9/jNzhIOugR1ouK/QDGZQV2Hmxr9DS1Mh6n6CsFdJyYW3eD5vlCMgtvQ
Ojzd2i3bQzBIMMqsHOFFdRXZXxvwjGQ+EveeapfC0LUWvpiqpBuphkp344fB8oxm
fZpysaLWjz+wkrLTpejV2kI5W4bj/N1ovEg3A68bl8WufugPuS3Vf2VtAgMBAAGj
gZQwgZEwHQYDVR0OBBYEFDJ/jekmzRYxpTzYho14CaXD8uLgMGIGA1UdIwRbMFmA
FDJ/jekmzRYxpTzYho14CaXD8uLgoT6kPDA6MREwDwYDVQQKDAhUZXN0IE9yZzEl
MCMGA1UEAwwcVGVzdCBPcmcgcmF1YyBDQSBEZXZlbG9wbWVudIIBATAMBgNVHRME
BTADAQH/MA0GCSqGSIb3DQEBCwUAA4IBAQCV88QOl5viFrS16uTsqDVN5Y2PYLcb
70OlwlquAs1jG9vj16g6TRE7blLiaguqt86cU5hLshQS536twUSM14WwuDAkoe7+
ZRPc3kYKiG9CcxYuh+WZiGlnsMWhqCRjhtrKl4uPLAzoZbdugqwO0b+eL/ORYRLk
f4QuyNZcsyfrQu0VEOGBJAWTOQl1p8Pb5Nx4Emrg322DBWKTw5yAMClOC2eEml3a
2iKRGr9ocAZUtY0BYs280Py66ZTOZU2phQY2WqODguJ+Es41hCagVbQBgwsL+hyC
qamounEGFyn4KqxRyLi9Ao6NGD6f7gS4UfZg6derohiceBgcoWUQ3i8k
-----END CERTIFICATE-----
